target datalayout = "e-m:e-p270:32:32-p271:32:32-p272:64:64-i64:64-i128:128-f80:128-n8:16:32:64-S128"
target triple = "x86_64-pc-linux-gnu"

; Function Attrs: nounwind uwtable
define dso_local void @bit_not(ptr noundef %0) #0 {
  %2 = alloca ptr, align 8
  %3 = alloca i64, align 8
  store ptr %0, ptr %2, align 8
  call void @llvm.lifetime.start.p0(i64 8, ptr %3) #12
  br label %4

4:                                                ; preds = %1
  br label %5

5:                                                ; preds = %4
  br label %6

6:                                                ; preds = %5
  store i64 0, ptr %3, align 8
  br label %7

7:                                                ; preds = %26, %6
  %8 = load i64, ptr %3, align 8
  %9 = load ptr, ptr %2, align 8
  %10 = getelementptr inbounds i64, ptr %9, i64 1
  %11 = load i64, ptr %10, align 8
  %12 = icmp slt i64 %8, %11
  br i1 %12, label %13, label %29

13:                                               ; preds = %7
  %14 = load ptr, ptr %2, align 8
  %15 = load i64, ptr %3, align 8
  %16 = ashr i64 %15, 6
  %17 = add nsw i64 %16, 2
  %18 = getelementptr inbounds i64, ptr %14, i64 %17
  %19 = load i64, ptr %18, align 8
  %20 = xor i64 %19, -1
  %21 = load ptr, ptr %2, align 8
  %22 = load i64, ptr %3, align 8
  %23 = ashr i64 %22, 6
  %24 = add nsw i64 %23, 2
  %25 = getelementptr inbounds i64, ptr %21, i64 %24
  store i64 %20, ptr %25, align 8
  br label %26

26:                                               ; preds = %13
  %27 = load i64, ptr %3, align 8
  %28 = add i64 %27, 64
  store i64 %28, ptr %3, align 8
  br label %7, !llvm.loop !17

29:                                               ; preds = %7
  call void @llvm.lifetime.end.p0(i64 8, ptr %3) #12
  ret void
}