; Function Attrs: nofree norecurse nosync nounwind memory(argmem: readwrite) uwtable
define dso_local void @bit_not(ptr noundef captures(none) %0) #2 {
  %2 = getelementptr inbounds nuw i8, ptr %0, i64 8
  %invariant.gep = getelementptr i8, ptr %0, i64 16
  %3 = load i64, ptr %2, align 8
  %4 = icmp sgt i64 %3, 0
  br i1 %4, label %.lr.ph, label %._crit_edge

.lr.ph:                                           ; preds = %1, %.lr.ph
  %.06 = phi i64 [ %8, %.lr.ph ], [ 0, %1 ]
  %5 = ashr exact i64 %.06, 3
  %gep = getelementptr i8, ptr %invariant.gep, i64 %5
  %6 = load i64, ptr %gep, align 8
  %7 = xor i64 %6, -1
  store i64 %7, ptr %gep, align 8
  %8 = add i64 %.06, 64
  %9 = load i64, ptr %2, align 8
  %10 = icmp slt i64 %8, %9
  br i1 %10, label %.lr.ph, label %._crit_edge, !llvm.loop !18

._crit_edge:                                      ; preds = %.lr.ph, %1
  ret void
}